target datalayout = "e-m:e-p270:32:32-p271:32:32-p272:64:64-i64:64-i128:128-f80:128-n8:16:32:64-S128"
target triple = "x86_64-pc-linux-gnu"

%struct.rlimit = type { i64, i64 }

@PyExc_ValueError = external global ptr, align 8
@.str.15 = private unnamed_addr constant [31 x i8] c"expected a tuple of 2 integers\00", align 1

; Function Attrs: inlinehint nounwind uwtable
define internal void @Py_DECREF(ptr noundef %0) #5 {
  %2 = alloca ptr, align 8
  store ptr %0, ptr %2, align 8, !tbaa !3
  %3 = load ptr, ptr %2, align 8, !tbaa !3
  call void @_Py_DecRef(ptr noundef %3)
  ret void
}

; Function Attrs: nounwind uwtable
define internal i32 @py2rlimit(ptr noundef %0, ptr noundef %1) #0 {
  %3 = alloca i32, align 4
  %4 = alloca ptr, align 8
  %5 = alloca ptr, align 8
  %6 = alloca ptr, align 8
  %7 = alloca ptr, align 8
  %8 = alloca i32, align 4
  store ptr %0, ptr %4, align 8, !tbaa !3
  store ptr %1, ptr %5, align 8, !tbaa !31
  call void @llvm.lifetime.start.p0(i64 8, ptr %6) #7
  call void @llvm.lifetime.start.p0(i64 8, ptr %7) #7
  %9 = load ptr, ptr %4, align 8, !tbaa !3
  %10 = call ptr @PySequence_Tuple(ptr noundef %9)
  store ptr %10, ptr %4, align 8, !tbaa !3
  %11 = load ptr, ptr %4, align 8, !tbaa !3
  %12 = icmp ne ptr %11, null
  br i1 %12, label %14, label %13

13:                                               ; preds = %2
  store i32 -1, ptr %3, align 4
  store i32 1, ptr %8, align 4
  br label %66

14:                                               ; preds = %2
  %15 = load ptr, ptr %4, align 8, !tbaa !3
  %16 = call i64 @PyTuple_Size(ptr noundef %15)
  %17 = icmp ne i64 %16, 2
  br i1 %17, label %18, label %20

18:                                               ; preds = %14
  %19 = load ptr, ptr @PyExc_ValueError, align 8, !tbaa !3
  call void @PyErr_SetString(ptr noundef %19, ptr noundef @.str.15)
  br label %64

20:                                               ; preds = %14
  %21 = load ptr, ptr %4, align 8, !tbaa !3
  %22 = call ptr @PyTuple_GetItem(ptr noundef %21, i64 noundef 0)
  store ptr %22, ptr %6, align 8, !tbaa !3
  %23 = load ptr, ptr %4, align 8, !tbaa !3
  %24 = call ptr @PyTuple_GetItem(ptr noundef %23, i64 noundef 1)
  store ptr %24, ptr %7, align 8, !tbaa !3
  %25 = load ptr, ptr %6, align 8, !tbaa !3
  %26 = call i64 @PyLong_AsLong(ptr noundef %25)
  %27 = load ptr, ptr %5, align 8, !tbaa !31
  %28 = getelementptr inbounds nuw %struct.rlimit, ptr %27, i32 0, i32 0
  store i64 %26, ptr %28, align 8, !tbaa !28
  %29 = load ptr, ptr %5, align 8, !tbaa !31
  %30 = getelementptr inbounds nuw %struct.rlimit, ptr %29, i32 0, i32 0
  %31 = load i64, ptr %30, align 8, !tbaa !28
  %32 = icmp eq i64 %31, -1
  br i1 %32, label %33, label %37

33:                                               ; preds = %20
  %34 = call ptr @PyErr_Occurred()
  %35 = icmp ne ptr %34, null
  br i1 %35, label %36, label %37

36:                                               ; preds = %33
  br label %64

37:                                               ; preds = %33, %20
  %38 = load ptr, ptr %7, align 8, !tbaa !3
  %39 = call i64 @PyLong_AsLong(ptr noundef %38)
  %40 = load ptr, ptr %5, align 8, !tbaa !31
  %41 = getelementptr inbounds nuw %struct.rlimit, ptr %40, i32 0, i32 1
  store i64 %39, ptr %41, align 8, !tbaa !30
  %42 = load ptr, ptr %5, align 8, !tbaa !31
  %43 = getelementptr inbounds nuw %struct.rlimit, ptr %42, i32 0, i32 1
  %44 = load i64, ptr %43, align 8, !tbaa !30
  %45 = icmp eq i64 %44, -1
  br i1 %45, label %46, label %50

46:                                               ; preds = %37
  %47 = call ptr @PyErr_Occurred()
  %48 = icmp ne ptr %47, null
  br i1 %48, label %49, label %50

49:                                               ; preds = %46
  br label %64

50:                                               ; preds = %46, %37
  %51 = load ptr, ptr %4, align 8, !tbaa !3
  call void @Py_DECREF(ptr noundef %51)
  %52 = load ptr, ptr %5, align 8, !tbaa !31
  %53 = getelementptr inbounds nuw %struct.rlimit, ptr %52, i32 0, i32 0
  %54 = load i64, ptr %53, align 8, !tbaa !28
  %55 = and i64 %54, -1
  %56 = load ptr, ptr %5, align 8, !tbaa !31
  %57 = getelementptr inbounds nuw %struct.rlimit, ptr %56, i32 0, i32 0
  store i64 %55, ptr %57, align 8, !tbaa !28
  %58 = load ptr, ptr %5, align 8, !tbaa !31
  %59 = getelementptr inbounds nuw %struct.rlimit, ptr %58, i32 0, i32 1
  %60 = load i64, ptr %59, align 8, !tbaa !30
  %61 = and i64 %60, -1
  %62 = load ptr, ptr %5, align 8, !tbaa !31
  %63 = getelementptr inbounds nuw %struct.rlimit, ptr %62, i32 0, i32 1
  store i64 %61, ptr %63, align 8, !tbaa !30
  store i32 0, ptr %3, align 4
  store i32 1, ptr %8, align 4
  br label %66

64:                                               ; preds = %49, %36, %18
  %65 = load ptr, ptr %4, align 8, !tbaa !3
  call void @Py_DECREF(ptr noundef %65)
  store i32 -1, ptr %3, align 4
  store i32 1, ptr %8, align 4
  br label %66

66:                                               ; preds = %64, %50, %13
  call void @llvm.lifetime.end.p0(i64 8, ptr %7) #7
  call void @llvm.lifetime.end.p0(i64 8, ptr %6) #7
  %67 = load i32, ptr %3, align 4
  ret i32 %67
}