; Function Attrs: nounwind uwtable
define internal fastcc range(i32 -1, 1) i32 @py2rlimit(ptr noundef %0, ptr noundef nonnull writeonly captures(none) %1) unnamed_addr #0 {
  %3 = tail call ptr @PySequence_Tuple(ptr noundef %0) #6
  %.not = icmp eq ptr %3, null
  br i1 %.not, label %22, label %4

4:                                                ; preds = %2
  %5 = tail call i64 @PyTuple_Size(ptr noundef nonnull %3) #6
  %.not18 = icmp eq i64 %5, 2
  br i1 %.not18, label %8, label %6

6:                                                ; preds = %4
  %7 = load ptr, ptr @PyExc_ValueError, align 8, !tbaa !10
  tail call void @PyErr_SetString(ptr noundef %7, ptr noundef nonnull @.str.15) #6
  br label %21

8:                                                ; preds = %4
  %9 = tail call ptr @PyTuple_GetItem(ptr noundef nonnull %3, i64 noundef 0) #6
  %10 = tail call ptr @PyTuple_GetItem(ptr noundef nonnull %3, i64 noundef 1) #6
  %11 = tail call i64 @PyLong_AsLong(ptr noundef %9) #6
  store i64 %11, ptr %1, align 8, !tbaa !22
  %12 = icmp eq i64 %11, -1
  br i1 %12, label %13, label %15

13:                                               ; preds = %8
  %14 = tail call ptr @PyErr_Occurred() #6
  %.not19 = icmp eq ptr %14, null
  br i1 %.not19, label %15, label %21

15:                                               ; preds = %13, %8
  %16 = tail call i64 @PyLong_AsLong(ptr noundef %10) #6
  %17 = getelementptr inbounds nuw i8, ptr %1, i64 8
  store i64 %16, ptr %17, align 8, !tbaa !24
  %18 = icmp eq i64 %16, -1
  br i1 %18, label %19, label %.sink.split

19:                                               ; preds = %15
  %20 = tail call ptr @PyErr_Occurred() #6
  %.not20 = icmp eq ptr %20, null
  br i1 %.not20, label %.sink.split, label %21

21:                                               ; preds = %19, %13, %6
  br label %.sink.split

.sink.split:                                      ; preds = %15, %19, %21
  %.0.ph = phi i32 [ -1, %21 ], [ 0, %19 ], [ 0, %15 ]
  tail call void @_Py_DecRef(ptr noundef nonnull %3) #6
  br label %22

22:                                               ; preds = %.sink.split, %2
  %.0 = phi i32 [ -1, %2 ], [ %.0.ph, %.sink.split ]
  ret i32 %.0
}